; Function Attrs: mustprogress uwtable
define dso_local void @_ZN5vcpkg17VcpkgCmdArguments22imbue_from_environmentEv(ptr noundef nonnull align 8 dereferenceable(1840) %0) local_unnamed_addr #4 align 2 personality ptr @__gxx_personality_v0 {
_ZNSt8functionIFN5vcpkg8OptionalINSt7__cxx1112basic_stringIcSt11char_traitsIcESaIcEEEEENS0_11ZStringViewEEEC2IPDoFS8_S9_EvEEOT_.exit:
  %1 = alloca %"class.std::function", align 8
  %2 = getelementptr inbounds nuw i8, ptr %1, i64 8
  store i64 0, ptr %2, align 8
  %3 = getelementptr inbounds nuw i8, ptr %1, i64 24
  %4 = getelementptr inbounds nuw i8, ptr %1, i64 16
  store ptr @_ZN5vcpkg24get_environment_variableB5cxx11ENS_11ZStringViewE, ptr %1, align 8, !tbaa !218
  store ptr @_ZNSt17_Function_handlerIFN5vcpkg8OptionalINSt7__cxx1112basic_stringIcSt11char_traitsIcESaIcEEEEENS0_11ZStringViewEEPDoFS8_S9_EE9_M_invokeERKSt9_Any_dataOS9_, ptr %3, align 8, !tbaa !219
  store ptr @_ZNSt17_Function_handlerIFN5vcpkg8OptionalINSt7__cxx1112basic_stringIcSt11char_traitsIcESaIcEEEEENS0_11ZStringViewEEPDoFS8_S9_EE10_M_managerERSt9_Any_dataRKSE_St18_Manager_operation, ptr %4, align 8, !tbaa !222
  invoke void @_ZN5vcpkg17VcpkgCmdArguments27imbue_from_environment_implESt8functionIFNS_8OptionalINSt7__cxx1112basic_stringIcSt11char_traitsIcESaIcEEEEENS_11ZStringViewEEE(ptr noundef nonnull align 8 dereferenceable(1840) %0, ptr noundef nonnull %1)
          to label %5 unwind label %12

5:                                                ; preds = %_ZNSt8functionIFN5vcpkg8OptionalINSt7__cxx1112basic_stringIcSt11char_traitsIcESaIcEEEEENS0_11ZStringViewEEEC2IPDoFS8_S9_EvEEOT_.exit
  %6 = load ptr, ptr %4, align 8, !tbaa !222
  %.not.i2 = icmp eq ptr %6, null
  br i1 %.not.i2, label %_ZNSt14_Function_baseD2Ev.exit, label %7

7:                                                ; preds = %5
  %8 = invoke noundef zeroext i1 %6(ptr noundef nonnull align 8 dereferenceable(32) %1, ptr noundef nonnull align 8 dereferenceable(32) %1, i32 noundef 3)
          to label %_ZNSt14_Function_baseD2Ev.exit unwind label %9

9:                                                ; preds = %7
  %10 = landingpad { ptr, i32 }
          catch ptr null
  %11 = extractvalue { ptr, i32 } %10, 0
  call void @__clang_call_terminate(ptr %11) #28
  unreachable

_ZNSt14_Function_baseD2Ev.exit:                   ; preds = %5, %7
  ret void

12:                                               ; preds = %_ZNSt8functionIFN5vcpkg8OptionalINSt7__cxx1112basic_stringIcSt11char_traitsIcESaIcEEEEENS0_11ZStringViewEEEC2IPDoFS8_S9_EvEEOT_.exit
  %13 = landingpad { ptr, i32 }
          cleanup
  %14 = load ptr, ptr %4, align 8, !tbaa !222
  %.not.i3 = icmp eq ptr %14, null
  br i1 %.not.i3, label %_ZNSt14_Function_baseD2Ev.exit4, label %15

15:                                               ; preds = %12
  %16 = invoke noundef zeroext i1 %14(ptr noundef nonnull align 8 dereferenceable(32) %1, ptr noundef nonnull align 8 dereferenceable(32) %1, i32 noundef 3)
          to label %_ZNSt14_Function_baseD2Ev.exit4 unwind label %17

17:                                               ; preds = %15
  %18 = landingpad { ptr, i32 }
          catch ptr null
  %19 = extractvalue { ptr, i32 } %18, 0
  call void @__clang_call_terminate(ptr %19) #28
  unreachable

_ZNSt14_Function_baseD2Ev.exit4:                  ; preds = %12, %15
  resume { ptr, i32 } %13
}